target datalayout = "e-m:e-p270:32:32-p271:32:32-p272:64:64-i64:64-i128:128-f80:128-n8:16:32:64-S128"
target triple = "x86_64-pc-linux-gnu"

%struct.internal_hooks = type { ptr, ptr, ptr }
%struct.cJSON = type { ptr, ptr, ptr, i32, ptr, i32, double, ptr }

@global_hooks = internal global %struct.internal_hooks { ptr @malloc, ptr @free, ptr @realloc }, align 8

; Function Attrs: nounwind sspstrong uwtable
define i32 @cJSON_ReplaceItemViaPointer(ptr noundef %0, ptr noundef %1, ptr noundef %2) #0 {
  %4 = alloca i32, align 4
  %5 = alloca ptr, align 8
  %6 = alloca ptr, align 8
  %7 = alloca ptr, align 8
  store ptr %0, ptr %5, align 8, !tbaa !11
  store ptr %1, ptr %6, align 8, !tbaa !11
  store ptr %2, ptr %7, align 8, !tbaa !11
  %8 = load ptr, ptr %5, align 8, !tbaa !11
  %9 = icmp eq ptr %8, null
  br i1 %9, label %21, label %10

10:                                               ; preds = %3
  %11 = load ptr, ptr %5, align 8, !tbaa !11
  %12 = getelementptr inbounds nuw %struct.cJSON, ptr %11, i32 0, i32 2
  %13 = load ptr, ptr %12, align 8, !tbaa !29
  %14 = icmp eq ptr %13, null
  br i1 %14, label %21, label %15

15:                                               ; preds = %10
  %16 = load ptr, ptr %7, align 8, !tbaa !11
  %17 = icmp eq ptr %16, null
  br i1 %17, label %21, label %18

18:                                               ; preds = %15
  %19 = load ptr, ptr %6, align 8, !tbaa !11
  %20 = icmp eq ptr %19, null
  br i1 %20, label %21, label %22

21:                                               ; preds = %18, %15, %10, %3
  store i32 0, ptr %4, align 4
  br label %101

22:                                               ; preds = %18
  %23 = load ptr, ptr %7, align 8, !tbaa !11
  %24 = load ptr, ptr %6, align 8, !tbaa !11
  %25 = icmp eq ptr %23, %24
  br i1 %25, label %26, label %27

26:                                               ; preds = %22
  store i32 1, ptr %4, align 4
  br label %101

27:                                               ; preds = %22
  %28 = load ptr, ptr %6, align 8, !tbaa !11
  %29 = getelementptr inbounds nuw %struct.cJSON, ptr %28, i32 0, i32 0
  %30 = load ptr, ptr %29, align 8, !tbaa !28
  %31 = load ptr, ptr %7, align 8, !tbaa !11
  %32 = getelementptr inbounds nuw %struct.cJSON, ptr %31, i32 0, i32 0
  store ptr %30, ptr %32, align 8, !tbaa !28
  %33 = load ptr, ptr %6, align 8, !tbaa !11
  %34 = getelementptr inbounds nuw %struct.cJSON, ptr %33, i32 0, i32 1
  %35 = load ptr, ptr %34, align 8, !tbaa !54
  %36 = load ptr, ptr %7, align 8, !tbaa !11
  %37 = getelementptr inbounds nuw %struct.cJSON, ptr %36, i32 0, i32 1
  store ptr %35, ptr %37, align 8, !tbaa !54
  %38 = load ptr, ptr %7, align 8, !tbaa !11
  %39 = getelementptr inbounds nuw %struct.cJSON, ptr %38, i32 0, i32 0
  %40 = load ptr, ptr %39, align 8, !tbaa !28
  %41 = icmp ne ptr %40, null
  br i1 %41, label %42, label %48

42:                                               ; preds = %27
  %43 = load ptr, ptr %7, align 8, !tbaa !11
  %44 = load ptr, ptr %7, align 8, !tbaa !11
  %45 = getelementptr inbounds nuw %struct.cJSON, ptr %44, i32 0, i32 0
  %46 = load ptr, ptr %45, align 8, !tbaa !28
  %47 = getelementptr inbounds nuw %struct.cJSON, ptr %46, i32 0, i32 1
  store ptr %43, ptr %47, align 8, !tbaa !54
  br label %48

48:                                               ; preds = %42, %27
  %49 = load ptr, ptr %5, align 8, !tbaa !11
  %50 = getelementptr inbounds nuw %struct.cJSON, ptr %49, i32 0, i32 2
  %51 = load ptr, ptr %50, align 8, !tbaa !29
  %52 = load ptr, ptr %6, align 8, !tbaa !11
  %53 = icmp eq ptr %51, %52
  br i1 %53, label %54, label %72

54:                                               ; preds = %48
  %55 = load ptr, ptr %5, align 8, !tbaa !11
  %56 = getelementptr inbounds nuw %struct.cJSON, ptr %55, i32 0, i32 2
  %57 = load ptr, ptr %56, align 8, !tbaa !29
  %58 = getelementptr inbounds nuw %struct.cJSON, ptr %57, i32 0, i32 1
  %59 = load ptr, ptr %58, align 8, !tbaa !54
  %60 = load ptr, ptr %5, align 8, !tbaa !11
  %61 = getelementptr inbounds nuw %struct.cJSON, ptr %60, i32 0, i32 2
  %62 = load ptr, ptr %61, align 8, !tbaa !29
  %63 = icmp eq ptr %59, %62
  br i1 %63, label %64, label %68

64:                                               ; preds = %54
  %65 = load ptr, ptr %7, align 8, !tbaa !11
  %66 = load ptr, ptr %7, align 8, !tbaa !11
  %67 = getelementptr inbounds nuw %struct.cJSON, ptr %66, i32 0, i32 1
  store ptr %65, ptr %67, align 8, !tbaa !54
  br label %68

68:                                               ; preds = %64, %54
  %69 = load ptr, ptr %7, align 8, !tbaa !11
  %70 = load ptr, ptr %5, align 8, !tbaa !11
  %71 = getelementptr inbounds nuw %struct.cJSON, ptr %70, i32 0, i32 2
  store ptr %69, ptr %71, align 8, !tbaa !29
  br label %95

72:                                               ; preds = %48
  %73 = load ptr, ptr %7, align 8, !tbaa !11
  %74 = getelementptr inbounds nuw %struct.cJSON, ptr %73, i32 0, i32 1
  %75 = load ptr, ptr %74, align 8, !tbaa !54
  %76 = icmp ne ptr %75, null
  br i1 %76, label %77, label %83

77:                                               ; preds = %72
  %78 = load ptr, ptr %7, align 8, !tbaa !11
  %79 = load ptr, ptr %7, align 8, !tbaa !11
  %80 = getelementptr inbounds nuw %struct.cJSON, ptr %79, i32 0, i32 1
  %81 = load ptr, ptr %80, align 8, !tbaa !54
  %82 = getelementptr inbounds nuw %struct.cJSON, ptr %81, i32 0, i32 0
  store ptr %78, ptr %82, align 8, !tbaa !28
  br label %83

83:                                               ; preds = %77, %72
  %84 = load ptr, ptr %7, align 8, !tbaa !11
  %85 = getelementptr inbounds nuw %struct.cJSON, ptr %84, i32 0, i32 0
  %86 = load ptr, ptr %85, align 8, !tbaa !28
  %87 = icmp eq ptr %86, null
  br i1 %87, label %88, label %94

88:                                               ; preds = %83
  %89 = load ptr, ptr %7, align 8, !tbaa !11
  %90 = load ptr, ptr %5, align 8, !tbaa !11
  %91 = getelementptr inbounds nuw %struct.cJSON, ptr %90, i32 0, i32 2
  %92 = load ptr, ptr %91, align 8, !tbaa !29
  %93 = getelementptr inbounds nuw %struct.cJSON, ptr %92, i32 0, i32 1
  store ptr %89, ptr %93, align 8, !tbaa !54
  br label %94

94:                                               ; preds = %88, %83
  br label %95

95:                                               ; preds = %94, %68
  %96 = load ptr, ptr %6, align 8, !tbaa !11
  %97 = getelementptr inbounds nuw %struct.cJSON, ptr %96, i32 0, i32 0
  store ptr null, ptr %97, align 8, !tbaa !28
  %98 = load ptr, ptr %6, align 8, !tbaa !11
  %99 = getelementptr inbounds nuw %struct.cJSON, ptr %98, i32 0, i32 1
  store ptr null, ptr %99, align 8, !tbaa !54
  %100 = load ptr, ptr %6, align 8, !tbaa !11
  call void @cJSON_Delete(ptr noundef %100)
  store i32 1, ptr %4, align 4
  br label %101

101:                                              ; preds = %95, %26, %21
  %102 = load i32, ptr %4, align 4
  ret i32 %102
}

; Function Attrs: nounwind sspstrong uwtable
define internal ptr @cJSON_strdup(ptr noundef %0, ptr noundef %1) #0 {
  %3 = alloca ptr, align 8
  %4 = alloca ptr, align 8
  %5 = alloca ptr, align 8
  %6 = alloca i64, align 8
  %7 = alloca ptr, align 8
  %8 = alloca i32, align 4
  store ptr %0, ptr %4, align 8, !tbaa !33
  store ptr %1, ptr %5, align 8, !tbaa !35
  call void @llvm.lifetime.start.p0(i64 8, ptr %6) #10
  store i64 0, ptr %6, align 8, !tbaa !34
  call void @llvm.lifetime.start.p0(i64 8, ptr %7) #10
  store ptr null, ptr %7, align 8, !tbaa !33
  %9 = load ptr, ptr %4, align 8, !tbaa !33
  %10 = icmp eq ptr %9, null
  br i1 %10, label %11, label %12

11:                                               ; preds = %2
  store ptr null, ptr %3, align 8
  store i32 1, ptr %8, align 4
  br label %29

12:                                               ; preds = %2
  %13 = load ptr, ptr %4, align 8, !tbaa !33
  %14 = call i64 @strlen(ptr noundef %13) #11
  %15 = add i64 %14, 1
  store i64 %15, ptr %6, align 8, !tbaa !34
  %16 = load ptr, ptr %5, align 8, !tbaa !35
  %17 = getelementptr inbounds nuw %struct.internal_hooks, ptr %16, i32 0, i32 0
  %18 = load ptr, ptr %17, align 8, !tbaa !21
  %19 = load i64, ptr %6, align 8, !tbaa !34
  %20 = call ptr %18(i64 noundef %19)
  store ptr %20, ptr %7, align 8, !tbaa !33
  %21 = load ptr, ptr %7, align 8, !tbaa !33
  %22 = icmp eq ptr %21, null
  br i1 %22, label %23, label %24

23:                                               ; preds = %12
  store ptr null, ptr %3, align 8
  store i32 1, ptr %8, align 4
  br label %29

24:                                               ; preds = %12
  %25 = load ptr, ptr %7, align 8, !tbaa !33
  %26 = load ptr, ptr %4, align 8, !tbaa !33
  %27 = load i64, ptr %6, align 8, !tbaa !34
  call void @llvm.memcpy.p0.p0.i64(ptr align 1 %25, ptr align 1 %26, i64 %27, i1 false)
  %28 = load ptr, ptr %7, align 8, !tbaa !33
  store ptr %28, ptr %3, align 8
  store i32 1, ptr %8, align 4
  br label %29

29:                                               ; preds = %24, %23, %11
  call void @llvm.lifetime.end.p0(i64 8, ptr %7) #10
  call void @llvm.lifetime.end.p0(i64 8, ptr %6) #10
  %30 = load ptr, ptr %3, align 8
  ret ptr %30
}

; Function Attrs: nounwind sspstrong uwtable
define void @cJSON_free(ptr noundef %0) #0 {
  %2 = alloca ptr, align 8
  store ptr %0, ptr %2, align 8, !tbaa !37
  %3 = load ptr, ptr getelementptr inbounds nuw (%struct.internal_hooks, ptr @global_hooks, i32 0, i32 1), align 8, !tbaa !23
  %4 = load ptr, ptr %2, align 8, !tbaa !37
  call void %3(ptr noundef %4)
  store ptr null, ptr %2, align 8, !tbaa !37
  ret void
}

; Function Attrs: nounwind sspstrong uwtable
define internal i32 @replace_item_in_object(ptr noundef %0, ptr noundef %1, ptr noundef %2, i32 noundef %3) #0 {
  %5 = alloca i32, align 4
  %6 = alloca ptr, align 8
  %7 = alloca ptr, align 8
  %8 = alloca ptr, align 8
  %9 = alloca i32, align 4
  store ptr %0, ptr %6, align 8, !tbaa !11
  store ptr %1, ptr %7, align 8, !tbaa !33
  store ptr %2, ptr %8, align 8, !tbaa !11
  store i32 %3, ptr %9, align 4, !tbaa !40
  %10 = load ptr, ptr %8, align 8, !tbaa !11
  %11 = icmp eq ptr %10, null
  br i1 %11, label %15, label %12

12:                                               ; preds = %4
  %13 = load ptr, ptr %7, align 8, !tbaa !33
  %14 = icmp eq ptr %13, null
  br i1 %14, label %15, label %16

15:                                               ; preds = %12, %4
  store i32 0, ptr %5, align 4
  br label %53

16:                                               ; preds = %12
  %17 = load ptr, ptr %8, align 8, !tbaa !11
  %18 = getelementptr inbounds nuw %struct.cJSON, ptr %17, i32 0, i32 3
  %19 = load i32, ptr %18, align 8, !tbaa !17
  %20 = and i32 %19, 512
  %21 = icmp ne i32 %20, 0
  br i1 %21, label %31, label %22

22:                                               ; preds = %16
  %23 = load ptr, ptr %8, align 8, !tbaa !11
  %24 = getelementptr inbounds nuw %struct.cJSON, ptr %23, i32 0, i32 7
  %25 = load ptr, ptr %24, align 8, !tbaa !30
  %26 = icmp ne ptr %25, null
  br i1 %26, label %27, label %31

27:                                               ; preds = %22
  %28 = load ptr, ptr %8, align 8, !tbaa !11
  %29 = getelementptr inbounds nuw %struct.cJSON, ptr %28, i32 0, i32 7
  %30 = load ptr, ptr %29, align 8, !tbaa !30
  call void @cJSON_free(ptr noundef %30)
  br label %31

31:                                               ; preds = %27, %22, %16
  %32 = load ptr, ptr %7, align 8, !tbaa !33
  %33 = call ptr @cJSON_strdup(ptr noundef %32, ptr noundef @global_hooks)
  %34 = load ptr, ptr %8, align 8, !tbaa !11
  %35 = getelementptr inbounds nuw %struct.cJSON, ptr %34, i32 0, i32 7
  store ptr %33, ptr %35, align 8, !tbaa !30
  %36 = load ptr, ptr %8, align 8, !tbaa !11
  %37 = getelementptr inbounds nuw %struct.cJSON, ptr %36, i32 0, i32 7
  %38 = load ptr, ptr %37, align 8, !tbaa !30
  %39 = icmp eq ptr %38, null
  br i1 %39, label %40, label %41

40:                                               ; preds = %31
  store i32 0, ptr %5, align 4
  br label %53

41:                                               ; preds = %31
  %42 = load ptr, ptr %8, align 8, !tbaa !11
  %43 = getelementptr inbounds nuw %struct.cJSON, ptr %42, i32 0, i32 3
  %44 = load i32, ptr %43, align 8, !tbaa !17
  %45 = and i32 %44, -513
  store i32 %45, ptr %43, align 8, !tbaa !17
  %46 = load ptr, ptr %6, align 8, !tbaa !11
  %47 = load ptr, ptr %6, align 8, !tbaa !11
  %48 = load ptr, ptr %7, align 8, !tbaa !33
  %49 = load i32, ptr %9, align 4, !tbaa !40
  %50 = call ptr @get_object_item(ptr noundef %47, ptr noundef %48, i32 noundef %49)
  %51 = load ptr, ptr %8, align 8, !tbaa !11
  %52 = call i32 @cJSON_ReplaceItemViaPointer(ptr noundef %46, ptr noundef %50, ptr noundef %51)
  store i32 %52, ptr %5, align 4
  br label %53

53:                                               ; preds = %41, %40, %15
  %54 = load i32, ptr %5, align 4
  ret i32 %54
}