; Function Attrs: nounwind sspstrong uwtable
define internal fastcc range(i32 0, 2) i32 @replace_item_in_object(ptr noundef %0, ptr noundef %1, ptr noundef %2, i32 noundef range(i32 0, 2) %3) unnamed_addr #8 {
  %5 = icmp eq ptr %2, null
  %6 = icmp eq ptr %1, null
  %or.cond = or i1 %6, %5
  br i1 %or.cond, label %cJSON_ReplaceItemViaPointer.exit, label %7

7:                                                ; preds = %4
  %8 = getelementptr inbounds nuw i8, ptr %2, i64 24
  %9 = load i32, ptr %8, align 8, !tbaa !11
  %10 = and i32 %9, 512
  %.not = icmp eq i32 %10, 0
  br i1 %.not, label %11, label %16

11:                                               ; preds = %7
  %12 = getelementptr inbounds nuw i8, ptr %2, i64 56
  %13 = load ptr, ptr %12, align 8, !tbaa !26
  %.not18 = icmp eq ptr %13, null
  br i1 %.not18, label %16, label %14

14:                                               ; preds = %11
  %15 = load ptr, ptr getelementptr inbounds nuw (i8, ptr @global_hooks, i64 8), align 8, !tbaa !22
  tail call void %15(ptr noundef nonnull %13) #31
  br label %16

16:                                               ; preds = %7, %11, %14
  %17 = tail call i64 @strlen(ptr noundef nonnull readonly dereferenceable(1) %1) #32
  %18 = add i64 %17, 1
  %19 = load ptr, ptr @global_hooks, align 8, !tbaa !18
  %20 = tail call ptr %19(i64 noundef %18) #31
  %21 = icmp eq ptr %20, null
  br i1 %21, label %cJSON_strdup.exit.thread, label %23

cJSON_strdup.exit.thread:                         ; preds = %16
  %22 = getelementptr inbounds nuw i8, ptr %2, i64 56
  store ptr null, ptr %22, align 8, !tbaa !26
  br label %cJSON_ReplaceItemViaPointer.exit

23:                                               ; preds = %16
  tail call void @llvm.memcpy.p0.p0.i64(ptr nonnull align 1 %20, ptr nonnull readonly align 1 %1, i64 %18, i1 false)
  %24 = getelementptr inbounds nuw i8, ptr %2, i64 56
  store ptr %20, ptr %24, align 8, !tbaa !26
  %25 = load i32, ptr %8, align 8, !tbaa !11
  %26 = and i32 %25, -513
  store i32 %26, ptr %8, align 8, !tbaa !11
  %27 = tail call fastcc ptr @get_object_item(ptr noundef %0, ptr noundef nonnull %1, i32 noundef %3)
  %28 = icmp eq ptr %0, null
  br i1 %28, label %cJSON_ReplaceItemViaPointer.exit, label %29

29:                                               ; preds = %23
  %30 = getelementptr inbounds nuw i8, ptr %0, i64 16
  %31 = load ptr, ptr %30, align 8, !tbaa !25
  %32 = icmp eq ptr %31, null
  %33 = icmp eq ptr %27, null
  %or.cond3.i = or i1 %33, %32
  br i1 %or.cond3.i, label %cJSON_ReplaceItemViaPointer.exit, label %34

34:                                               ; preds = %29
  %35 = icmp eq ptr %2, %27
  br i1 %35, label %cJSON_ReplaceItemViaPointer.exit, label %36

36:                                               ; preds = %34
  %37 = load ptr, ptr %27, align 8, !tbaa !24
  store ptr %37, ptr %2, align 8, !tbaa !24
  %38 = getelementptr inbounds nuw i8, ptr %27, i64 8
  %39 = load ptr, ptr %38, align 8, !tbaa !40
  %40 = getelementptr inbounds nuw i8, ptr %2, i64 8
  store ptr %39, ptr %40, align 8, !tbaa !40
  %.not.i = icmp eq ptr %37, null
  br i1 %.not.i, label %43, label %41

41:                                               ; preds = %36
  %42 = getelementptr inbounds nuw i8, ptr %37, i64 8
  store ptr %2, ptr %42, align 8, !tbaa !40
  br label %43

43:                                               ; preds = %41, %36
  %44 = icmp eq ptr %31, %27
  br i1 %44, label %45, label %51

45:                                               ; preds = %43
  %46 = getelementptr inbounds nuw i8, ptr %31, i64 8
  %47 = load ptr, ptr %46, align 8, !tbaa !40
  %48 = icmp eq ptr %47, %27
  br i1 %48, label %49, label %50

49:                                               ; preds = %45
  store ptr %2, ptr %40, align 8, !tbaa !40
  br label %50

50:                                               ; preds = %49, %45
  store ptr %2, ptr %30, align 8, !tbaa !25
  br label %59

51:                                               ; preds = %43
  %52 = load ptr, ptr %40, align 8, !tbaa !40
  %.not39.i = icmp eq ptr %52, null
  br i1 %.not39.i, label %54, label %53

53:                                               ; preds = %51
  store ptr %2, ptr %52, align 8, !tbaa !24
  %.pre.i = load ptr, ptr %2, align 8, !tbaa !24
  br label %54

54:                                               ; preds = %53, %51
  %55 = phi ptr [ %.pre.i, %53 ], [ %37, %51 ]
  %56 = icmp eq ptr %55, null
  br i1 %56, label %57, label %59

57:                                               ; preds = %54
  %58 = getelementptr inbounds nuw i8, ptr %31, i64 8
  store ptr %2, ptr %58, align 8, !tbaa !40
  br label %59

59:                                               ; preds = %57, %54, %50
  tail call void @llvm.memset.p0.i64(ptr noundef nonnull align 8 dereferenceable(16) %27, i8 0, i64 16, i1 false)
  tail call void @cJSON_Delete(ptr noundef nonnull %27)
  br label %cJSON_ReplaceItemViaPointer.exit

cJSON_ReplaceItemViaPointer.exit:                 ; preds = %59, %34, %29, %23, %cJSON_strdup.exit.thread, %4
  %.0 = phi i32 [ 0, %4 ], [ 0, %cJSON_strdup.exit.thread ], [ 1, %59 ], [ 0, %29 ], [ 0, %23 ], [ 1, %34 ]
  ret i32 %.0
}